; Function Attrs: nounwind uwtable
define hidden noundef i32 @zend_ini_open_file_for_scanning(ptr noundef %0, i32 noundef %1) local_unnamed_addr #0 {
  %3 = alloca ptr, align 8
  %4 = alloca i64, align 8
  %5 = call i32 @zend_stream_fixup(ptr noundef %0, ptr noundef nonnull %3, ptr noundef nonnull %4) #10
  %6 = icmp eq i32 %5, -1
  br i1 %6, label %23, label %7

7:                                                ; preds = %2
  %or.cond3.i = icmp ugt i32 %1, 2
  br i1 %or.cond3.i, label %init_ini_scanner.exit.thread, label %8

init_ini_scanner.exit.thread:                     ; preds = %7
  call void (i32, ptr, ...) @zend_error(i32 noundef 2, ptr noundef nonnull @.str.11) #10
  br label %23

8:                                                ; preds = %7
  store i32 1, ptr getelementptr inbounds (%struct._zend_ini_scanner_globals, ptr @ini_scanner_globals, i64 0, i32 11), align 8
  store i32 %1, ptr getelementptr inbounds (%struct._zend_ini_scanner_globals, ptr @ini_scanner_globals, i64 0, i32 12), align 4
  store ptr %0, ptr @ini_scanner_globals, align 8
  %.not.i = icmp eq ptr %0, null
  br i1 %.not.i, label %18, label %9

9:                                                ; preds = %8
  %10 = getelementptr inbounds i8, ptr %0, i64 40
  %11 = load ptr, ptr %10, align 8
  %12 = getelementptr inbounds i8, ptr %11, i64 4
  %13 = load i32, ptr %12, align 4
  %14 = and i32 %13, 64
  %.not16.i = icmp eq i32 %14, 0
  br i1 %.not16.i, label %15, label %18

15:                                               ; preds = %9
  %16 = load i32, ptr %11, align 4
  %17 = add i32 %16, 1
  store i32 %17, ptr %11, align 4
  br label %18

18:                                               ; preds = %15, %9, %8
  %storemerge.i = phi ptr [ %11, %15 ], [ %11, %9 ], [ null, %8 ]
  store ptr %storemerge.i, ptr getelementptr inbounds (%struct._zend_ini_scanner_globals, ptr @ini_scanner_globals, i64 0, i32 10), align 8
  call void @zend_stack_init(ptr noundef nonnull getelementptr inbounds (%struct._zend_ini_scanner_globals, ptr @ini_scanner_globals, i64 0, i32 9), i32 noundef 4) #10
  store i32 0, ptr getelementptr inbounds (%struct._zend_ini_scanner_globals, ptr @ini_scanner_globals, i64 0, i32 8), align 8
  %19 = load ptr, ptr %3, align 8
  %20 = load i64, ptr %4, align 8
  store ptr %19, ptr getelementptr inbounds (%struct._zend_ini_scanner_globals, ptr @ini_scanner_globals, i64 0, i32 5), align 8
  store ptr %19, ptr getelementptr inbounds (%struct._zend_ini_scanner_globals, ptr @ini_scanner_globals, i64 0, i32 3), align 8
  %21 = and i64 %20, 4294967295
  %22 = getelementptr inbounds i8, ptr %19, i64 %21
  store ptr %22, ptr getelementptr inbounds (%struct._zend_ini_scanner_globals, ptr @ini_scanner_globals, i64 0, i32 7), align 8
  br label %23

23:                                               ; preds = %init_ini_scanner.exit.thread, %2, %18
  %.0 = phi i32 [ 0, %18 ], [ -1, %2 ], [ -1, %init_ini_scanner.exit.thread ]
  ret i32 %.0
}